(dp1
S'rangeid'
p2
I114
sS'prevwidth'
p3
I754
sS'range_interval'
p4
(dp5
I112
I01
sI69
I01
sI40
I01
sI73
I01
sI48
I01
sI105
I01
sI58
I01
sI60
I01
sI95
I01
ssS'interval'
p6
I00
sS'range'
p7
(dp8
I32
(lp9
I313
aI410
aI469
aI754
aI626
aI901
aI785
aI275
asI97
(lp10
I607
aI644
aI533
aI644
aI610
aI391
aI644
aI641
asI107
(lp11
I598
aI308
aI938
aI641
aI618
asI69
(lp12
I615
aI615
asI71
(lp13
I738
aI753
asI40
(lp14
I411
aI411
asI73
(lp15
I334
aI334
asI42
(lp16
I470
aI754
aI342
aI374
aI342
aI329
asI75
(lp17
I697
aI573
aI896
aI753
aI765
aI659
aI765
aI693
aI648
aI614
aI730
aI696
aI993
aI694
aI651
aI652
aI411
aI329
aI411
aI754
asI112
(lp18
I644
aI644
asI48
(lp19
I626
aI626
aI626
aI626
aI626
aI626
aI626
aI626
aI626
aI626
asI114
(lp20
I444
aI536
aI430
aI641
aI586
aI831
aI580
aI586
aI523
aI641
aI329
aI641
aI754
asI105
(lp21
I308
aI308
asI58
(lp22
I360
aI360
asI95
(lp23
I450
aI450
asI60
(lp24
I754
aI754
aI754
asI63
(lp25
I522
aI900
aI696
aI686
aI660
aI747
assS'prevcid'
p26
I126
s.